target datalayout = "e-m:e-p270:32:32-p271:32:32-p272:64:64-i64:64-i128:128-f80:128-n8:16:32:64-S128"
target triple = "x86_64-pc-linux-gnu"

%struct.MpegEncContext = type { ptr, i32, i32, i32, [12 x i32], i32, %struct.ScanTable, %struct.ScanTable, [64 x i8], [64 x i8], ptr, ptr, i32, i32, i32, i32, i32, i32, i32, i32, i32, i32, i32, i32, i32, i32, i32, i32, i32, i32, i32, i32, i64, i64, ptr, %struct.BufferPoolContext, i32, i32, %union.anon, i32, %struct.MPVWorkPicture, %struct.MPVWorkPicture, %struct.MPVWorkPicture, i32, [3 x i32], ptr, [3 x ptr], ptr, ptr, ptr, ptr, ptr, ptr, [3 x ptr], i32, ptr, ptr, ptr, ptr, %struct.ScratchpadContext, i32, i32, i32, i32, i32, i32, %struct.BlockDSPContext, %struct.H264ChromaContext, %struct.HpelDSPContext, %struct.IDCTDSPContext, %struct.QpelDSPContext, %struct.VideoDSPContext, %struct.H263DSPContext, ptr, [2 x [2 x ptr]], i32, i32, [2 x [4 x [2 x i32]]], [2 x [2 x i32]], [2 x [2 x [2 x i32]]], [2 x [64 x i16]], i32, i32, i32, i32, i32, [6 x i32], [6 x i32], [3 x ptr], ptr, [64 x i16], [64 x i16], [64 x i16], [64 x i16], i32, i32, %struct.GetBitContext, i32, i32, i32, i32, i32, i32, i32, i32, i32, i32, i32, i32, i32, i32, i32, i64, i64, i16, i16, i16, i16, i32, i32, i32, i32, i32, i32, i32, i32, i32, [3 x i32], i32, i32, i32, i32, i32, i32, %struct.GetBitContext, i32, [2 x [2 x i32]], i32, i32, i32, i32, i32, i32, i32, i32, i32, i32, i32, i32, i32, i32, [2 x i32], i32, i32, ptr, ptr, ptr, ptr, ptr, i32, i32, %struct.ERContext }
%struct.ScanTable = type { ptr, [64 x i8], [64 x i8] }
%struct.BufferPoolContext = type { ptr, ptr, ptr, ptr, ptr, i32, i32, i32 }
%union.anon = type { [32 x ptr] }
%struct.MPVWorkPicture = type { [3 x ptr], [3 x i64], ptr, ptr, [2 x ptr], ptr, ptr, [2 x ptr], i32 }
%struct.ScratchpadContext = type { ptr, ptr, %union.anon.0, i32 }
%union.anon.0 = type { ptr }
%struct.BlockDSPContext = type { ptr, ptr, [2 x ptr] }
%struct.H264ChromaContext = type { [4 x ptr], [4 x ptr] }
%struct.HpelDSPContext = type { [4 x [4 x ptr]], [4 x [4 x ptr]], [4 x [4 x ptr]], [4 x ptr] }
%struct.IDCTDSPContext = type { ptr, ptr, ptr, ptr, ptr, ptr, [64 x i8], i32, i32 }
%struct.QpelDSPContext = type { [2 x [16 x ptr]], [2 x [16 x ptr]], [2 x [16 x ptr]] }
%struct.VideoDSPContext = type { ptr, ptr }
%struct.H263DSPContext = type { ptr, ptr }
%struct.GetBitContext = type { ptr, ptr, i32, i32, i32 }
%struct.ERContext = type { ptr, ptr, i32, ptr, i32, i32, i32, i64, i64, i32, i32, ptr, ptr, [3 x ptr], ptr, ptr, [2 x [4 x [2 x i32]]], %struct.ERPicture, %struct.ERPicture, %struct.ERPicture, [2 x ptr], [2 x ptr], i16, i16, i32, i32, ptr, ptr }
%struct.ERPicture = type { ptr, ptr, ptr, [2 x ptr], [2 x ptr], ptr, i32 }

@ff_h263_round_chroma.h263_chroma_roundtab = internal constant [16 x i8] c"\00\00\00\01\01\01\01\01\00\00\00\00\00\00\01\01", align 16

; Function Attrs: alwaysinline nounwind willreturn memory(none) uwtable
define internal i32 @av_clip_c(i32 noundef %0, i32 noundef %1, i32 noundef %2) #5 {
  %4 = alloca i32, align 4
  %5 = alloca i32, align 4
  %6 = alloca i32, align 4
  %7 = alloca i32, align 4
  store i32 %0, ptr %5, align 4, !tbaa !11
  store i32 %1, ptr %6, align 4, !tbaa !11
  store i32 %2, ptr %7, align 4, !tbaa !11
  %8 = load i32, ptr %5, align 4, !tbaa !11
  %9 = load i32, ptr %6, align 4, !tbaa !11
  %10 = icmp slt i32 %8, %9
  br i1 %10, label %11, label %13

11:                                               ; preds = %3
  %12 = load i32, ptr %6, align 4, !tbaa !11
  store i32 %12, ptr %4, align 4
  br label %21

13:                                               ; preds = %3
  %14 = load i32, ptr %5, align 4, !tbaa !11
  %15 = load i32, ptr %7, align 4, !tbaa !11
  %16 = icmp sgt i32 %14, %15
  br i1 %16, label %17, label %19

17:                                               ; preds = %13
  %18 = load i32, ptr %7, align 4, !tbaa !11
  store i32 %18, ptr %4, align 4
  br label %21

19:                                               ; preds = %13
  %20 = load i32, ptr %5, align 4, !tbaa !11
  store i32 %20, ptr %4, align 4
  br label %21

21:                                               ; preds = %19, %17, %11
  %22 = load i32, ptr %4, align 4
  ret i32 %22
}

; Function Attrs: inlinehint nounwind uwtable
define internal i32 @ff_h263_round_chroma(i32 noundef %0) #1 {
  %2 = alloca i32, align 4
  store i32 %0, ptr %2, align 4, !tbaa !11
  %3 = load i32, ptr %2, align 4, !tbaa !11
  %4 = and i32 %3, 15
  %5 = sext i32 %4 to i64
  %6 = getelementptr inbounds [16 x i8], ptr @ff_h263_round_chroma.h263_chroma_roundtab, i64 0, i64 %5
  %7 = load i8, ptr %6, align 1, !tbaa !74
  %8 = zext i8 %7 to i32
  %9 = load i32, ptr %2, align 4, !tbaa !11
  %10 = ashr i32 %9, 3
  %11 = add nsw i32 %8, %10
  ret i32 %11
}

; Function Attrs: nounwind uwtable
define internal void @chroma_4mv_motion(ptr noundef %0, ptr noundef %1, ptr noundef %2, ptr noundef %3, ptr noundef %4, i32 noundef %5, i32 noundef %6) #0 {
  %8 = alloca ptr, align 8
  %9 = alloca ptr, align 8
  %10 = alloca ptr, align 8
  %11 = alloca ptr, align 8
  %12 = alloca ptr, align 8
  %13 = alloca i32, align 4
  %14 = alloca i32, align 4
  %15 = alloca ptr, align 8
  %16 = alloca i32, align 4
  %17 = alloca i32, align 4
  %18 = alloca i32, align 4
  %19 = alloca i32, align 4
  %20 = alloca i64, align 8
  store ptr %0, ptr %8, align 8, !tbaa !4
  store ptr %1, ptr %9, align 8, !tbaa !9
  store ptr %2, ptr %10, align 8, !tbaa !9
  store ptr %3, ptr %11, align 8, !tbaa !13
  store ptr %4, ptr %12, align 8, !tbaa !16
  store i32 %5, ptr %13, align 4, !tbaa !11
  store i32 %6, ptr %14, align 4, !tbaa !11
  call void @llvm.lifetime.start.p0(i64 8, ptr %15) #6
  call void @llvm.lifetime.start.p0(i64 4, ptr %16) #6
  call void @llvm.lifetime.start.p0(i64 4, ptr %17) #6
  call void @llvm.lifetime.start.p0(i64 4, ptr %18) #6
  call void @llvm.lifetime.start.p0(i64 4, ptr %19) #6
  store i32 0, ptr %19, align 4, !tbaa !11
  call void @llvm.lifetime.start.p0(i64 8, ptr %20) #6
  %21 = load i32, ptr %13, align 4, !tbaa !11
  %22 = call i32 @ff_h263_round_chroma(i32 noundef %21)
  store i32 %22, ptr %13, align 4, !tbaa !11
  %23 = load i32, ptr %14, align 4, !tbaa !11
  %24 = call i32 @ff_h263_round_chroma(i32 noundef %23)
  store i32 %24, ptr %14, align 4, !tbaa !11
  %25 = load i32, ptr %14, align 4, !tbaa !11
  %26 = and i32 %25, 1
  %27 = shl i32 %26, 1
  %28 = load i32, ptr %13, align 4, !tbaa !11
  %29 = and i32 %28, 1
  %30 = or i32 %27, %29
  store i32 %30, ptr %18, align 4, !tbaa !11
  %31 = load i32, ptr %13, align 4, !tbaa !11
  %32 = ashr i32 %31, 1
  store i32 %32, ptr %13, align 4, !tbaa !11
  %33 = load i32, ptr %14, align 4, !tbaa !11
  %34 = ashr i32 %33, 1
  store i32 %34, ptr %14, align 4, !tbaa !11
  %35 = load ptr, ptr %8, align 8, !tbaa !4
  %36 = getelementptr inbounds nuw %struct.MpegEncContext, ptr %35, i32 0, i32 82
  %37 = load i32, ptr %36, align 4, !tbaa !45
  %38 = mul nsw i32 %37, 8
  %39 = load i32, ptr %13, align 4, !tbaa !11
  %40 = add nsw i32 %38, %39
  store i32 %40, ptr %16, align 4, !tbaa !11
  %41 = load ptr, ptr %8, align 8, !tbaa !4
  %42 = getelementptr inbounds nuw %struct.MpegEncContext, ptr %41, i32 0, i32 83
  %43 = load i32, ptr %42, align 8, !tbaa !46
  %44 = mul nsw i32 %43, 8
  %45 = load i32, ptr %14, align 4, !tbaa !11
  %46 = add nsw i32 %44, %45
  store i32 %46, ptr %17, align 4, !tbaa !11
  %47 = load i32, ptr %16, align 4, !tbaa !11
  %48 = load ptr, ptr %8, align 8, !tbaa !4
  %49 = getelementptr inbounds nuw %struct.MpegEncContext, ptr %48, i32 0, i32 12
  %50 = load i32, ptr %49, align 8, !tbaa !86
  %51 = ashr i32 %50, 1
  %52 = call i32 @av_clip_c(i32 noundef %47, i32 noundef -8, i32 noundef %51) #7
  store i32 %52, ptr %16, align 4, !tbaa !11
  %53 = load i32, ptr %16, align 4, !tbaa !11
  %54 = load ptr, ptr %8, align 8, !tbaa !4
  %55 = getelementptr inbounds nuw %struct.MpegEncContext, ptr %54, i32 0, i32 12
  %56 = load i32, ptr %55, align 8, !tbaa !86
  %57 = ashr i32 %56, 1
  %58 = icmp eq i32 %53, %57
  br i1 %58, label %59, label %62

59:                                               ; preds = %7
  %60 = load i32, ptr %18, align 4, !tbaa !11
  %61 = and i32 %60, -2
  store i32 %61, ptr %18, align 4, !tbaa !11
  br label %62

62:                                               ; preds = %59, %7
  %63 = load i32, ptr %17, align 4, !tbaa !11
  %64 = load ptr, ptr %8, align 8, !tbaa !4
  %65 = getelementptr inbounds nuw %struct.MpegEncContext, ptr %64, i32 0, i32 13
  %66 = load i32, ptr %65, align 4, !tbaa !87
  %67 = ashr i32 %66, 1
  %68 = call i32 @av_clip_c(i32 noundef %63, i32 noundef -8, i32 noundef %67) #7
  store i32 %68, ptr %17, align 4, !tbaa !11
  %69 = load i32, ptr %17, align 4, !tbaa !11
  %70 = load ptr, ptr %8, align 8, !tbaa !4
  %71 = getelementptr inbounds nuw %struct.MpegEncContext, ptr %70, i32 0, i32 13
  %72 = load i32, ptr %71, align 4, !tbaa !87
  %73 = ashr i32 %72, 1
  %74 = icmp eq i32 %69, %73
  br i1 %74, label %75, label %78

75:                                               ; preds = %62
  %76 = load i32, ptr %18, align 4, !tbaa !11
  %77 = and i32 %76, -3
  store i32 %77, ptr %18, align 4, !tbaa !11
  br label %78

78:                                               ; preds = %75, %62
  %79 = load i32, ptr %17, align 4, !tbaa !11
  %80 = sext i32 %79 to i64
  %81 = load ptr, ptr %8, align 8, !tbaa !4
  %82 = getelementptr inbounds nuw %struct.MpegEncContext, ptr %81, i32 0, i32 33
  %83 = load i64, ptr %82, align 8, !tbaa !49
  %84 = mul nsw i64 %80, %83
  %85 = load i32, ptr %16, align 4, !tbaa !11
  %86 = sext i32 %85 to i64
  %87 = add nsw i64 %84, %86
  store i64 %87, ptr %20, align 8, !tbaa !80
  %88 = load ptr, ptr %11, align 8, !tbaa !13
  %89 = getelementptr inbounds ptr, ptr %88, i64 1
  %90 = load ptr, ptr %89, align 8, !tbaa !9
  %91 = load i64, ptr %20, align 8, !tbaa !80
  %92 = getelementptr inbounds i8, ptr %90, i64 %91
  store ptr %92, ptr %15, align 8, !tbaa !9
  %93 = load i32, ptr %16, align 4, !tbaa !11
  %94 = load ptr, ptr %8, align 8, !tbaa !4
  %95 = getelementptr inbounds nuw %struct.MpegEncContext, ptr %94, i32 0, i32 29
  %96 = load i32, ptr %95, align 4, !tbaa !82
  %97 = ashr i32 %96, 1
  %98 = load i32, ptr %18, align 4, !tbaa !11
  %99 = and i32 %98, 1
  %100 = sub nsw i32 %97, %99
  %101 = sub nsw i32 %100, 7
  %102 = icmp sgt i32 %101, 0
  br i1 %102, label %103, label %112

103:                                              ; preds = %78
  %104 = load ptr, ptr %8, align 8, !tbaa !4
  %105 = getelementptr inbounds nuw %struct.MpegEncContext, ptr %104, i32 0, i32 29
  %106 = load i32, ptr %105, align 4, !tbaa !82
  %107 = ashr i32 %106, 1
  %108 = load i32, ptr %18, align 4, !tbaa !11
  %109 = and i32 %108, 1
  %110 = sub nsw i32 %107, %109
  %111 = sub nsw i32 %110, 7
  br label %113

112:                                              ; preds = %78
  br label %113

113:                                              ; preds = %112, %103
  %114 = phi i32 [ %111, %103 ], [ 0, %112 ]
  %115 = icmp uge i32 %93, %114
  br i1 %115, label %140, label %116

116:                                              ; preds = %113
  %117 = load i32, ptr %17, align 4, !tbaa !11
  %118 = load ptr, ptr %8, align 8, !tbaa !4
  %119 = getelementptr inbounds nuw %struct.MpegEncContext, ptr %118, i32 0, i32 30
  %120 = load i32, ptr %119, align 8, !tbaa !79
  %121 = ashr i32 %120, 1
  %122 = load i32, ptr %18, align 4, !tbaa !11
  %123 = ashr i32 %122, 1
  %124 = sub nsw i32 %121, %123
  %125 = sub nsw i32 %124, 7
  %126 = icmp sgt i32 %125, 0
  br i1 %126, label %127, label %136

127:                                              ; preds = %116
  %128 = load ptr, ptr %8, align 8, !tbaa !4
  %129 = getelementptr inbounds nuw %struct.MpegEncContext, ptr %128, i32 0, i32 30
  %130 = load i32, ptr %129, align 8, !tbaa !79
  %131 = ashr i32 %130, 1
  %132 = load i32, ptr %18, align 4, !tbaa !11
  %133 = ashr i32 %132, 1
  %134 = sub nsw i32 %131, %133
  %135 = sub nsw i32 %134, 7
  br label %137

136:                                              ; preds = %116
  br label %137

137:                                              ; preds = %136, %127
  %138 = phi i32 [ %135, %127 ], [ 0, %136 ]
  %139 = icmp uge i32 %117, %138
  br i1 %139, label %140, label %170

140:                                              ; preds = %137, %113
  %141 = load ptr, ptr %8, align 8, !tbaa !4
  %142 = getelementptr inbounds nuw %struct.MpegEncContext, ptr %141, i32 0, i32 71
  %143 = getelementptr inbounds nuw %struct.VideoDSPContext, ptr %142, i32 0, i32 0
  %144 = load ptr, ptr %143, align 8, !tbaa !83
  %145 = load ptr, ptr %8, align 8, !tbaa !4
  %146 = getelementptr inbounds nuw %struct.MpegEncContext, ptr %145, i32 0, i32 59
  %147 = getelementptr inbounds nuw %struct.ScratchpadContext, ptr %146, i32 0, i32 0
  %148 = load ptr, ptr %147, align 8, !tbaa !84
  %149 = load ptr, ptr %15, align 8, !tbaa !9
  %150 = load ptr, ptr %8, align 8, !tbaa !4
  %151 = getelementptr inbounds nuw %struct.MpegEncContext, ptr %150, i32 0, i32 33
  %152 = load i64, ptr %151, align 8, !tbaa !49
  %153 = load ptr, ptr %8, align 8, !tbaa !4
  %154 = getelementptr inbounds nuw %struct.MpegEncContext, ptr %153, i32 0, i32 33
  %155 = load i64, ptr %154, align 8, !tbaa !49
  %156 = load i32, ptr %16, align 4, !tbaa !11
  %157 = load i32, ptr %17, align 4, !tbaa !11
  %158 = load ptr, ptr %8, align 8, !tbaa !4
  %159 = getelementptr inbounds nuw %struct.MpegEncContext, ptr %158, i32 0, i32 29
  %160 = load i32, ptr %159, align 4, !tbaa !82
  %161 = ashr i32 %160, 1
  %162 = load ptr, ptr %8, align 8, !tbaa !4
  %163 = getelementptr inbounds nuw %struct.MpegEncContext, ptr %162, i32 0, i32 30
  %164 = load i32, ptr %163, align 8, !tbaa !79
  %165 = ashr i32 %164, 1
  call void %144(ptr noundef %148, ptr noundef %149, i64 noundef %152, i64 noundef %155, i32 noundef 9, i32 noundef 9, i32 noundef %156, i32 noundef %157, i32 noundef %161, i32 noundef %165)
  %166 = load ptr, ptr %8, align 8, !tbaa !4
  %167 = getelementptr inbounds nuw %struct.MpegEncContext, ptr %166, i32 0, i32 59
  %168 = getelementptr inbounds nuw %struct.ScratchpadContext, ptr %167, i32 0, i32 0
  %169 = load ptr, ptr %168, align 8, !tbaa !84
  store ptr %169, ptr %15, align 8, !tbaa !9
  store i32 1, ptr %19, align 4, !tbaa !11
  br label %170

170:                                              ; preds = %140, %137
  %171 = load ptr, ptr %12, align 8, !tbaa !16
  %172 = load i32, ptr %18, align 4, !tbaa !11
  %173 = sext i32 %172 to i64
  %174 = getelementptr inbounds ptr, ptr %171, i64 %173
  %175 = load ptr, ptr %174, align 8, !tbaa !85
  %176 = load ptr, ptr %9, align 8, !tbaa !9
  %177 = load ptr, ptr %15, align 8, !tbaa !9
  %178 = load ptr, ptr %8, align 8, !tbaa !4
  %179 = getelementptr inbounds nuw %struct.MpegEncContext, ptr %178, i32 0, i32 33
  %180 = load i64, ptr %179, align 8, !tbaa !49
  call void %175(ptr noundef %176, ptr noundef %177, i64 noundef %180, i32 noundef 8)
  %181 = load ptr, ptr %11, align 8, !tbaa !13
  %182 = getelementptr inbounds ptr, ptr %181, i64 2
  %183 = load ptr, ptr %182, align 8, !tbaa !9
  %184 = load i64, ptr %20, align 8, !tbaa !80
  %185 = getelementptr inbounds i8, ptr %183, i64 %184
  store ptr %185, ptr %15, align 8, !tbaa !9
  %186 = load i32, ptr %19, align 4, !tbaa !11
  %187 = icmp ne i32 %186, 0
  br i1 %187, label %188, label %218

188:                                              ; preds = %170
  %189 = load ptr, ptr %8, align 8, !tbaa !4
  %190 = getelementptr inbounds nuw %struct.MpegEncContext, ptr %189, i32 0, i32 71
  %191 = getelementptr inbounds nuw %struct.VideoDSPContext, ptr %190, i32 0, i32 0
  %192 = load ptr, ptr %191, align 8, !tbaa !83
  %193 = load ptr, ptr %8, align 8, !tbaa !4
  %194 = getelementptr inbounds nuw %struct.MpegEncContext, ptr %193, i32 0, i32 59
  %195 = getelementptr inbounds nuw %struct.ScratchpadContext, ptr %194, i32 0, i32 0
  %196 = load ptr, ptr %195, align 8, !tbaa !84
  %197 = load ptr, ptr %15, align 8, !tbaa !9
  %198 = load ptr, ptr %8, align 8, !tbaa !4
  %199 = getelementptr inbounds nuw %struct.MpegEncContext, ptr %198, i32 0, i32 33
  %200 = load i64, ptr %199, align 8, !tbaa !49
  %201 = load ptr, ptr %8, align 8, !tbaa !4
  %202 = getelementptr inbounds nuw %struct.MpegEncContext, ptr %201, i32 0, i32 33
  %203 = load i64, ptr %202, align 8, !tbaa !49
  %204 = load i32, ptr %16, align 4, !tbaa !11
  %205 = load i32, ptr %17, align 4, !tbaa !11
  %206 = load ptr, ptr %8, align 8, !tbaa !4
  %207 = getelementptr inbounds nuw %struct.MpegEncContext, ptr %206, i32 0, i32 29
  %208 = load i32, ptr %207, align 4, !tbaa !82
  %209 = ashr i32 %208, 1
  %210 = load ptr, ptr %8, align 8, !tbaa !4
  %211 = getelementptr inbounds nuw %struct.MpegEncContext, ptr %210, i32 0, i32 30
  %212 = load i32, ptr %211, align 8, !tbaa !79
  %213 = ashr i32 %212, 1
  call void %192(ptr noundef %196, ptr noundef %197, i64 noundef %200, i64 noundef %203, i32 noundef 9, i32 noundef 9, i32 noundef %204, i32 noundef %205, i32 noundef %209, i32 noundef %213)
  %214 = load ptr, ptr %8, align 8, !tbaa !4
  %215 = getelementptr inbounds nuw %struct.MpegEncContext, ptr %214, i32 0, i32 59
  %216 = getelementptr inbounds nuw %struct.ScratchpadContext, ptr %215, i32 0, i32 0
  %217 = load ptr, ptr %216, align 8, !tbaa !84
  store ptr %217, ptr %15, align 8, !tbaa !9
  br label %218

218:                                              ; preds = %188, %170
  %219 = load ptr, ptr %12, align 8, !tbaa !16
  %220 = load i32, ptr %18, align 4, !tbaa !11
  %221 = sext i32 %220 to i64
  %222 = getelementptr inbounds ptr, ptr %219, i64 %221
  %223 = load ptr, ptr %222, align 8, !tbaa !85
  %224 = load ptr, ptr %10, align 8, !tbaa !9
  %225 = load ptr, ptr %15, align 8, !tbaa !9
  %226 = load ptr, ptr %8, align 8, !tbaa !4
  %227 = getelementptr inbounds nuw %struct.MpegEncContext, ptr %226, i32 0, i32 33
  %228 = load i64, ptr %227, align 8, !tbaa !49
  call void %223(ptr noundef %224, ptr noundef %225, i64 noundef %228, i32 noundef 8)
  call void @llvm.lifetime.end.p0(i64 8, ptr %20) #6
  call void @llvm.lifetime.end.p0(i64 4, ptr %19) #6
  call void @llvm.lifetime.end.p0(i64 4, ptr %18) #6
  call void @llvm.lifetime.end.p0(i64 4, ptr %17) #6
  call void @llvm.lifetime.end.p0(i64 4, ptr %16) #6
  call void @llvm.lifetime.end.p0(i64 8, ptr %15) #6
  ret void
}