; Function Attrs: nounwind uwtable
define internal fastcc void @chroma_4mv_motion(ptr noundef readonly captures(none) %0, ptr noundef %1, ptr noundef %2, ptr noundef readonly captures(none) %3, ptr noundef readonly captures(none) %4, i32 noundef %5, i32 noundef %6) unnamed_addr #0 {
  %8 = and i32 %5, 15
  %9 = zext nneg i32 %8 to i64
  %10 = getelementptr inbounds nuw [16 x i8], ptr @ff_h263_round_chroma.h263_chroma_roundtab, i64 0, i64 %9
  %11 = load i8, ptr %10, align 1, !tbaa !61
  %12 = zext i8 %11 to i32
  %13 = ashr i32 %5, 3
  %14 = add nsw i32 %13, %12
  %15 = and i32 %6, 15
  %16 = zext nneg i32 %15 to i64
  %17 = getelementptr inbounds nuw [16 x i8], ptr @ff_h263_round_chroma.h263_chroma_roundtab, i64 0, i64 %16
  %18 = load i8, ptr %17, align 1, !tbaa !61
  %19 = zext i8 %18 to i32
  %20 = ashr i32 %6, 3
  %21 = add nsw i32 %20, %19
  %22 = shl nsw i32 %21, 1
  %23 = and i32 %22, 2
  %24 = and i32 %14, 1
  %25 = ashr i32 %14, 1
  %26 = ashr i32 %21, 1
  %27 = getelementptr inbounds nuw i8, ptr %0, i64 3348
  %28 = load i32, ptr %27, align 4, !tbaa !37
  %29 = shl nsw i32 %28, 3
  %30 = add nsw i32 %29, %25
  %31 = getelementptr inbounds nuw i8, ptr %0, i64 3352
  %32 = load i32, ptr %31, align 8, !tbaa !38
  %33 = shl nsw i32 %32, 3
  %34 = add nsw i32 %33, %26
  %35 = getelementptr inbounds nuw i8, ptr %0, i64 488
  %36 = load i32, ptr %35, align 8, !tbaa !66
  %37 = ashr i32 %36, 1
  %38 = icmp slt i32 %30, -8
  %..i = tail call i32 @llvm.smin.i32(i32 %30, i32 %37)
  %.0.i = select i1 %38, i32 -8, i32 %..i
  %39 = icmp eq i32 %.0.i, %37
  %40 = select i1 %39, i32 0, i32 %24
  %41 = getelementptr inbounds nuw i8, ptr %0, i64 492
  %42 = load i32, ptr %41, align 4, !tbaa !67
  %43 = ashr i32 %42, 1
  %44 = icmp slt i32 %34, -8
  %..i75 = tail call i32 @llvm.smin.i32(i32 %34, i32 %43)
  %.0.i76 = select i1 %44, i32 -8, i32 %..i75
  %45 = icmp eq i32 %.0.i76, %43
  %spec.select = select i1 %45, i32 0, i32 %23
  %.169 = or disjoint i32 %spec.select, %40
  %46 = sext i32 %.0.i76 to i64
  %47 = getelementptr inbounds nuw i8, ptr %0, i64 576
  %48 = load i64, ptr %47, align 8, !tbaa !42
  %49 = mul nsw i64 %48, %46
  %50 = sext i32 %.0.i to i64
  %51 = add nsw i64 %49, %50
  %52 = getelementptr inbounds nuw i8, ptr %3, i64 8
  %53 = load ptr, ptr %52, align 8, !tbaa !41
  %54 = getelementptr inbounds i8, ptr %53, i64 %51
  %55 = getelementptr inbounds nuw i8, ptr %0, i64 556
  %56 = load i32, ptr %55, align 4, !tbaa !68
  %57 = ashr i32 %56, 1
  %58 = sub nsw i32 %57, %40
  %59 = tail call i32 @llvm.smax.i32(i32 %58, i32 7)
  %60 = add nsw i32 %59, -7
  %.not = icmp ult i32 %.0.i, %60
  %61 = getelementptr inbounds nuw i8, ptr %0, i64 560
  %62 = load i32, ptr %61, align 8, !tbaa !69
  %63 = ashr i32 %62, 1
  br i1 %.not, label %64, label %._crit_edge

64:                                               ; preds = %7
  %65 = lshr exact i32 %spec.select, 1
  %66 = sub nsw i32 %63, %65
  %67 = tail call i32 @llvm.smax.i32(i32 %66, i32 7)
  %spec.select74 = add nsw i32 %67, -7
  %.not72 = icmp ult i32 %.0.i76, %spec.select74
  br i1 %.not72, label %.thread, label %._crit_edge

.thread:                                          ; preds = %64
  %68 = zext nneg i32 %.169 to i64
  %69 = getelementptr inbounds nuw ptr, ptr %4, i64 %68
  %70 = load ptr, ptr %69, align 8, !tbaa !72
  tail call void %70(ptr noundef %1, ptr noundef %54, i64 noundef %48, i32 noundef 8) #5
  %71 = getelementptr inbounds nuw i8, ptr %3, i64 16
  %72 = load ptr, ptr %71, align 8, !tbaa !41
  %73 = getelementptr inbounds i8, ptr %72, i64 %51
  br label %96

._crit_edge:                                      ; preds = %7, %64
  %74 = getelementptr inbounds nuw i8, ptr %0, i64 2896
  %75 = load ptr, ptr %74, align 8, !tbaa !70
  %76 = getelementptr inbounds nuw i8, ptr %0, i64 1440
  %77 = load ptr, ptr %76, align 8, !tbaa !71
  tail call void %75(ptr noundef %77, ptr noundef %54, i64 noundef %48, i64 noundef %48, i32 noundef 9, i32 noundef 9, i32 noundef %.0.i, i32 noundef %.0.i76, i32 noundef %57, i32 noundef %63) #5
  %78 = load ptr, ptr %76, align 8, !tbaa !71
  %.pre77 = load i64, ptr %47, align 8, !tbaa !42
  %79 = zext nneg i32 %.169 to i64
  %80 = getelementptr inbounds nuw ptr, ptr %4, i64 %79
  %81 = load ptr, ptr %80, align 8, !tbaa !72
  tail call void %81(ptr noundef %1, ptr noundef %78, i64 noundef %.pre77, i32 noundef 8) #5
  %82 = getelementptr inbounds nuw i8, ptr %3, i64 16
  %83 = load ptr, ptr %82, align 8, !tbaa !41
  %84 = getelementptr inbounds i8, ptr %83, i64 %51
  %85 = getelementptr inbounds nuw i8, ptr %0, i64 2896
  %86 = load ptr, ptr %85, align 8, !tbaa !70
  %87 = getelementptr inbounds nuw i8, ptr %0, i64 1440
  %88 = load ptr, ptr %87, align 8, !tbaa !71
  %89 = load i64, ptr %47, align 8, !tbaa !42
  %90 = load i32, ptr %55, align 4, !tbaa !68
  %91 = ashr i32 %90, 1
  %92 = getelementptr inbounds nuw i8, ptr %0, i64 560
  %93 = load i32, ptr %92, align 8, !tbaa !69
  %94 = ashr i32 %93, 1
  tail call void %86(ptr noundef %88, ptr noundef %84, i64 noundef %89, i64 noundef %89, i32 noundef 9, i32 noundef 9, i32 noundef %.0.i, i32 noundef %.0.i76, i32 noundef %91, i32 noundef %94) #5
  %95 = load ptr, ptr %87, align 8, !tbaa !71
  br label %96

96:                                               ; preds = %.thread, %._crit_edge
  %97 = phi ptr [ %80, %._crit_edge ], [ %69, %.thread ]
  %.1 = phi ptr [ %95, %._crit_edge ], [ %73, %.thread ]
  %98 = load ptr, ptr %97, align 8, !tbaa !72
  %99 = load i64, ptr %47, align 8, !tbaa !42
  tail call void %98(ptr noundef %2, ptr noundef %.1, i64 noundef %99, i32 noundef 8) #5
  ret void
}